{
   <insert_a_suppression_name_here>
   Memcheck:Cond
   fun:__tzfile_compute
}
{
   <insert_a_suppression_name_here>
   Memcheck:Value4
   fun:__tzfile_compute
}
{
   <insert_a_suppression_name_here>
   Memcheck:Cond
   fun:__offtime
}
{
   <insert_a_suppression_name_here>
   Memcheck:Cond
   fun:__mktime_internal
}
{
   <insert_a_suppression_name_here>
   Memcheck:Leak
   match-leak-kinds: reachable
   fun:_Znwj
   fun:_ZNSt6vectorIbSaIbEE13_M_insert_auxESt13_Bit_iteratorb
   fun:_ZN5boost15program_options19options_description3addENS_10shared_ptrINS0_18option_descriptionEEE
}
{
   <insert_a_suppression_name_here>
   Memcheck:Leak
   match-leak-kinds: reachable
   fun:_Znwj
   fun:_ZNK5boost3any6holderISsE5cloneEv
}
{
   <insert_a_suppression_name_here>
   Memcheck:Leak
   match-leak-kinds: reachable
   fun:_Znwj
   fun:_ZN5boost15program_options29options_description_easy_initclEPKcS3_
}
{
   <insert_a_suppression_name_here>
   Memcheck:Leak
   match-leak-kinds: reachable
   fun:_Znwj
   fun:_ZNSt14_Function_base13_Base_managerIN5boost3_bi6bind_tISt6vectorISt4pairIyyESaIS6_EENS1_4_mfi3mf2IS8_6dskmapRKyjEENS2_5list3INS2_5valueIPSB_EENS1_3argILi1EEENSJ_ILi2EEEEEEEE8_M_cloneERSt9_Any_dataRKSP_St17integral_constantIbLb0EE
}
{
   <insert_a_suppression_name_here>
   Memcheck:Leak
   match-leak-kinds: reachable
   fun:_Znwj
   fun:_ZNSt14_Function_base13_Base_managerIN5boost3_bi6bind_tIbNS1_4_mfi3mf2Ib6dskmapRKyS8_EENS2_5list3INS2_5valueIPS6_EENS1_3argILi1EEENSE_ILi2EEEEEEEE8_M_cloneERSt9_Any_dataRKSK_St17integral_constantIbLb0EE
}
{
   <insert_a_suppression_name_here>
   Memcheck:Leak
   match-leak-kinds: possible
   fun:_Znwj
   fun:_ZNSs4_Rep9_S_createEjjRKSaIcE
}
{
   <insert_a_suppression_name_here>
   Memcheck:Leak
   match-leak-kinds: indirect
   fun:_Znwj
   fun:_ZNSs4_Rep9_S_createEjjRKSaIcE
}
{
   <insert_a_suppression_name_here>
   Memcheck:Leak
   match-leak-kinds: reachable
   fun:_Znwj
   fun:_ZNSs4_Rep9_S_createEjjRKSaIcE
}
{
   <insert_a_suppression_name_here>
   Memcheck:Leak
   match-leak-kinds: reachable
   fun:_Znwj
   fun:_ZN5boost15program_options18option_descriptionC1EPKcPKNS0_14value_semanticES3_
}
{
   <insert_a_suppression_name_here>
   Memcheck:Leak
   match-leak-kinds: reachable
   fun:_Znwj
   fun:_ZN5boost15program_options29options_description_easy_initclEPKcPKNS0_14value_semanticES3_
}
{
   <insert_a_suppression_name_here>
   Memcheck:Leak
   match-leak-kinds: reachable
   fun:_Znwj
   fun:_ZNSt8_Rb_treeISsSsSt9_IdentityISsESt4lessISsESaISsEE16_M_insert_uniqueISt23_Rb_tree_const_iteratorISsEEEvT_S9_
}
{
   <insert_a_suppression_name_here>
   Memcheck:Leak
   match-leak-kinds: reachable
   fun:_Znwj
   fun:_ZNSt8_Rb_treeISsSt4pairIKSsN5boost15program_options14variable_valueEESt10_Select1stIS5_ESt4lessISsESaIS5_EE17_M_insert_unique_ESt23_Rb_tree_const_iteratorIS5_ERKS5_
}
{
   <insert_a_suppression_name_here>
   Memcheck:Leak
   match-leak-kinds: reachable
   fun:_Znwj
   fun:_ZN9__gnu_cxx13new_allocatorIN5boost11multi_index6detail20sequenced_index_nodeINS3_18ordered_index_nodeINS3_15index_node_baseINS1_6bimaps8relation15mutant_relationINS7_4tags6taggedIKyNS8_9member_at4leftEEENSB_IyNSD_5rightEEEN4mpl_2naELb1EEESaISK_EEEEEEEE8allocateEjPKv
}
{
   <insert_a_suppression_name_here>
   Memcheck:Leak
   match-leak-kinds: reachable
   fun:_Znwj
   fun:_ZN9__gnu_cxx13new_allocatorIN5boost11multi_index6detail18ordered_index_nodeINS4_INS3_15index_node_baseINS1_6bimaps8relation15mutant_relationINS6_4tags6taggedIKyNS7_9member_at4leftEEENSA_ISB_NSC_5rightEEEN4mpl_2naELb1EEESaISJ_EEEEEEEE8allocateEjPKv
}
{
   <insert_a_suppression_name_here>
   Memcheck:Leak
   match-leak-kinds: possible
   fun:_Znwj
   fun:_ZN9__gnu_cxx13new_allocatorIN5boost11multi_index6detail18ordered_index_nodeINS4_INS3_15index_node_baseINS1_6bimaps8relation15mutant_relationINS6_4tags6taggedIKyNS7_9member_at4leftEEENSA_ISB_NSC_5rightEEEN4mpl_2naELb1EEESaISJ_EEEEEEEE8allocateEjPKv
}
{
   <insert_a_suppression_name_here>
   Memcheck:Leak
   match-leak-kinds: reachable
   fun:_Znwj
   fun:_ZN9__gnu_cxx13new_allocatorISt13_Rb_tree_nodeISt4pairIKyN6memmap4linkEEEE8allocateEjPKv
}
{
   <insert_a_suppression_name_here>
   Memcheck:Leak
   match-leak-kinds: possible
   fun:_Znwj
   fun:_ZN9__gnu_cxx13new_allocatorIN5boost11multi_index6detail20sequenced_index_nodeINS3_18ordered_index_nodeINS3_15index_node_baseINS1_6bimaps8relation15mutant_relationINS7_4tags6taggedIKyNS8_9member_at4leftEEENSB_IyNSD_5rightEEEN4mpl_2naELb1EEESaISK_EEEEEEEE8allocateEjPKv
}
{
   <insert_a_suppression_name_here>
   Memcheck:Leak
   match-leak-kinds: possible
   fun:_Znwj
   fun:_ZN9__gnu_cxx13new_allocatorIN5boost11multi_index6detail20sequenced_index_nodeINS3_18ordered_index_nodeINS3_15index_node_baseINS1_6bimaps8relation15mutant_relationINS7_4tags6taggedIKyNS8_9member_at4leftEEENSB_IyNSD_5rightEEEN4mpl_2naELb1EEESaISK_EEEEEEEE8allocateEjPKv
}
{
   <insert_a_suppression_name_here>
   Memcheck:Leak
   match-leak-kinds: reachable
   fun:_Znwj
   fun:_ZN5boost15program_options5valueISsEEPNS0_11typed_valueIT_cEEPS3_
}
{
   <insert_a_suppression_name_here>
   Memcheck:Leak
   match-leak-kinds: reachable
   fun:_Znwj
   fun:_ZN5boost15program_options5valueIyEEPNS0_11typed_valueIT_cEEPS3_
}
{
   <insert_a_suppression_name_here>
   Memcheck:Leak
   match-leak-kinds: reachable
   fun:_Znwj
   fun:_ZN5boost15program_options5valueIjEEPNS0_11typed_valueIT_cEEPS3_
}
{
   <insert_a_suppression_name_here>
   Memcheck:Leak
   match-leak-kinds: reachable
   fun:_Znwj
   fun:_ZNSt6vectorIN5boost10shared_ptrINS0_15program_options18option_descriptionEEESaIS4_EE13_M_insert_auxEN9__gnu_cxx17__normal_iteratorIPS4_S6_EERKS4_
}
{
   <insert_a_suppression_name_here>
   Memcheck:Leak
   match-leak-kinds: reachable
   fun:malloc
   fun:__fopen_internal
   fun:fopen64
}
{
   <insert_a_suppression_name_here>
   Memcheck:Leak
   match-leak-kinds: reachable
   fun:_Znaj
   fun:_ZNSt13basic_filebufIcSt11char_traitsIcEE27_M_allocate_internal_bufferEv
}
{
   <insert_a_suppression_name_here>
   Memcheck:Leak
   match-leak-kinds: reachable
   fun:malloc
   obj:/lib/libfuse.so.2.8.6
}
{
   <insert_a_suppression_name_here>
   Memcheck:Leak
   match-leak-kinds: reachable
   fun:malloc
   fun:fuse_session_new
   obj:/lib/libfuse.so.2.8.6
}
{
   <insert_a_suppression_name_here>
   Memcheck:Leak
   match-leak-kinds: reachable
   fun:malloc
   fun:realloc
   obj:/lib/libfuse.so.2.8.6
}
{
   <insert_a_suppression_name_here>
   Memcheck:Leak
   match-leak-kinds: reachable
   fun:calloc
   obj:/lib/libfuse.so.2.8.6
}
{
   <insert_a_suppression_name_here>
   Memcheck:Leak
   match-leak-kinds: reachable
   fun:calloc
   fun:fuse_fs_new
   obj:/lib/libfuse.so.2.8.6
}
{
   <insert_a_suppression_name_here>
   Memcheck:Param
   writev(vector[...])
   fun:writev
   obj:/lib/libfuse.so.2.8.6
}
{
   <insert_a_suppression_name_here>
   Memcheck:Param
   write(buf)
   obj:/lib/i386-linux-gnu/libpthread-2.15.so
}
{
   <insert_a_suppression_name_here>
   Memcheck:Leak
   match-leak-kinds: indirect
   fun:_Znwj
   fun:_ZN9__gnu_cxx13new_allocatorIP5entryE8allocateEjPKv
}
{
   <insert_a_suppression_name_here>
   Memcheck:Leak
   match-leak-kinds: indirect
   fun:_Znwj
   fun:_ZN9__gnu_cxx13new_allocatorI4areaE8allocateEjPKv
}
{
   <insert_a_suppression_name_here>
   Memcheck:Leak
   match-leak-kinds: reachable
   fun:_Znwj
   fun:_ZNSt14_Function_base13_Base_managerIN5boost3_bi6bind_tISt6vectorISt4pairIyyESaIS6_EENS1_4_mfi3mf2IS8_6dskmapRKyjEENS2_5list3INS2_5valueIPSB_EENS1_3argILi1EEENSJ_ILi2EEEEEEEE10_M_managerERSt9_Any_dataRKSP_St18_Manager_operation
}
{
   <insert_a_suppression_name_here>
   Memcheck:Leak
   match-leak-kinds: reachable
   fun:_Znwj
   fun:_ZNSt14_Function_base13_Base_managerIN5boost3_bi6bind_tIbNS1_4_mfi3mf2Ib6dskmapRKyS8_EENS2_5list3INS2_5valueIPS6_EENS1_3argILi1EEENSE_ILi2EEEEEEEE10_M_managerERSt9_Any_dataRKSK_St18_Manager_operation
}
{
   <insert_a_suppression_name_here>
   Memcheck:Leak
   match-leak-kinds: possible
   fun:_Znwj
   fun:_ZN5boost6bimaps17container_adaptor17container_adaptorINS_11multi_index6detail13ordered_indexINS3_6memberINS0_8relation6detail16relation_storageINS0_4tags6taggedIKyNS7_9member_at4leftEEENSB_ISC_NSD_5rightEEELb1EEEyXadL_ZNSI_4leftEEEEESt4lessIyENS4_9nth_layerILi2ENS7_15mutant_relationISF_SH_N4mpl_2naELb1EEENS0_6detail10bimap_coreINS0_6set_ofIySL_EENS0_11multiset_ofIySL_EESP_SP_SP_E12core_indicesESaISQ_EEENS_3mpl6v_itemISE_NS11_7vector0ISP_EELi0EEENS4_18ordered_unique_tagEEENSR_17set_view_iteratorINS4_19bidir_node_iteratorINS4_18ordered_index_nodeINS4_15index_node_baseISQ_SZ_EEEEEEEENSR_23const_set_view_iteratorIS1E_EENS1_7support23iterator_facade_to_baseIS1F_S1H_EESP_NS8_28get_mutable_relation_functorISQ_EENS7_7support22get_above_view_functorISQ_EENS12_INSR_20set_view_key_to_baseIySQ_SJ_EENS12_INS1_6detail27iterator_from_base_identityINS_16reverse_iteratorIS1E_EENS18_IS1V_EES1V_NS1G_IS1V_EEEENS11_6vectorISP_SP_SP_SP_SP_SP_SP_SP_SP_SP_SP_SP_SP_SP_SP_SP_SP_SP_SP_SP_EELi1EEELi1EEEE6insertERKNSN_ISF_SH_SP_Lb0EEE
}
{
   <insert_a_suppression_name_here>
   Memcheck:Leak
   match-leak-kinds: reachable
   fun:_Znwj
   fun:_ZN5boost15program_options5valueISsEEPNS0_11typed_valueIT_cEEv
}
{
   <insert_a_suppression_name_here>
   Memcheck:Leak
   match-leak-kinds: reachable
   fun:_Znwj
   fun:_ZN5boost15program_options5valueIyEEPNS0_11typed_valueIT_cEEv
}
{
   <insert_a_suppression_name_here>
   Memcheck:Leak
   match-leak-kinds: reachable
   fun:_Znwj
   fun:_ZN5boost15program_options5valueIjEEPNS0_11typed_valueIT_cEEv
}
{
   <insert_a_suppression_name_here>
   Memcheck:Cond
   fun:guess_time_tm.isra.0
   fun:__mktime_internal
}
{
   <insert_a_suppression_name_here>
   Memcheck:Leak
   match-leak-kinds: reachable
   fun:_Znwj
   fun:_ZN9__gnu_cxx13new_allocatorIPvE8allocateEjPKv
   fun:_ZNSt12_Vector_baseIPvSaIS0_EE11_M_allocateEj
}
{
   <insert_a_suppression_name_here>
   Memcheck:Leak
   match-leak-kinds: reachable
   fun:_Znwj
   fun:_ZN9__gnu_cxx13new_allocatorI4areaE8allocateEjPKv
   fun:_ZNSt12_Vector_baseI4areaSaIS0_EE11_M_allocateEj
}
{
   <insert_a_suppression_name_here>
   Memcheck:Leak
   match-leak-kinds: reachable
   fun:_Znwj
   fun:_ZN9__gnu_cxx13new_allocatorISt23_Sp_counted_ptr_inplaceI6vareasSaIS2_ELNS_12_Lock_policyE2EEE8allocateEjPKv
   fun:_ZNSt16allocator_traitsISaISt23_Sp_counted_ptr_inplaceI6vareasSaIS1_ELN9__gnu_cxx12_Lock_policyE2EEEE8allocateERS6_j
   fun:_ZNSt14__shared_countILN9__gnu_cxx12_Lock_policyE2EEC1I6vareasSaIS4_EIS4_EEESt19_Sp_make_shared_tagPT_RKT0_DpOT1_
}
{
   <insert_a_suppression_name_here>
   Helgrind:Race
   obj:/lib/libfuse.so.2.8.6
   fun:fuse_session_process
}
{
   <insert_a_suppression_name_here>
   Helgrind:Race
   fun:fuse_session_exit
}
{
   <insert_a_suppression_name_here>
   Helgrind:Race
   fun:fuse_session_exited
}
{
   <insert_a_suppression_name_here>
   Helgrind:UnlockUnlocked
   fun:pthread_mutex_unlock
   fun:fuse_session_loop_mt
}
{
   <insert_a_suppression_name_here>
   Helgrind:PthAPIerror
   fun:pthread_mutex_destroy
   fun:fuse_session_loop_mt
}
{
   <insert_a_suppression_name_here>
   drd:ConflictingAccess
   obj:/lib/libfuse.so.2.8.6
}
{
   <insert_a_suppression_name_here>
   drd:ConflictingAccess
   fun:pthread_mutex_lock
   obj:/lib/libfuse.so.2.8.6
}
{
   <insert_a_suppression_name_here>
   drd:ConflictingAccess
   fun:fuse_session_exit
   obj:/lib/libfuse.so.2.8.6
}
{
   <insert_a_suppression_name_here>
   drd:MutexErr
   fun:pthread_mutex_unlock
   fun:fuse_session_loop_mt
}
